(lp0
(lp1
S'edus2_AAA_neg.mp4'
p2
aS'aaaaaaaa'
p3
aS'/Users/paul/Documents/edus2_video/20yo_male_mva/edus2_AAA_neg.mp4'
p4
aa(lp5
S'edus2_FAST_lt_positive_free_fluid.mp4'
p6
aS'bbbbbbbb'
p7
aS'/Users/paul/Documents/edus2_video/20yo_male_mva/edus2_FAST_lt_positive_free_fluid.mp4'
p8
aa(lp9
S'edus2_FAST_RUQ_positive_abdominal_fluid_.mp4'
p10
aS'ccccccc'
p11
aS'/Users/paul/Documents/edus2_video/20yo_male_mva/edus2_FAST_RUQ_positive_abdominal_fluid_.mp4'
p12
aa(lp13
S'edus2_Hydronephrosis_pos_rt.mp4'
p14
aS'dddddddd'
p15
aS'/Users/paul/Documents/edus2_video/20yo_male_mva/edus2_Hydronephrosis_pos_rt.mp4'
p16
aa.