(lp0
(lp1
S'edus2_FAST_pelvis_positive_free_fluid.mp4'
p2
aS'aaaaaaaa'
p3
aS'/Users/paul/Documents/edus2_video/28yo_female_pelvic_pain/edus2_FAST_pelvis_positive_free_fluid.mp4'
p4
aa(lp5
S'edus2_FAST_RUQ_Positive_Small_Free_Fluid.mp4'
p6
aS'bbbbbbbbb'
p7
aS'/Users/paul/Documents/edus2_video/28yo_female_pelvic_pain/edus2_FAST_RUQ_Positive_Small_Free_Fluid.mp4'
p8
aa(lp9
S'edus2_Hydronephrosis_pos_rt.mp4'
p10
aS'ccccccccc'
p11
aS'/Users/paul/Documents/edus2_video/28yo_female_pelvic_pain/edus2_Hydronephrosis_pos_rt.mp4'
p12
aa(lp13
S'edus2_IUP.mp4'
p14
aS'dddddddd'
p15
aS'/Users/paul/Documents/edus2_video/28yo_female_pelvic_pain/edus2_IUP.mp4'
p16
aa.